; ModuleID = '20/1074.c'
source_filename = "20/1074.c"
target datalayout = "e-m:e-p270:32:32-p271:32:32-p272:64:64-i64:64-f80:128-n8:16:32:64-S128"
target triple = "x86_64-pc-linux-gnu"

@.str = private unnamed_addr constant [6 x i8] c"%s %s\00", align 1
@.str.1 = private unnamed_addr constant [3 x i8] c"%c\00", align 1
@.str.2 = private unnamed_addr constant [2 x i8] c"\0A\00", align 1

; Function Attrs: noinline nounwind uwtable
define dso_local i32 @main() #0 {
  %1 = alloca i32, align 4
  %2 = alloca [11 x i8], align 1
  %3 = alloca [4 x i8], align 1
  %4 = alloca [14 x i8], align 1
  %5 = alloca i32, align 4
  %6 = alloca i32, align 4
  %7 = alloca i32, align 4
  %8 = alloca i32, align 4
  %9 = alloca i32, align 4
  %10 = alloca i32, align 4
  %11 = alloca i32, align 4
  store i32 0, i32* %1, align 4
  store i32 0, i32* %5, align 4
  store i32 0, i32* %6, align 4
  br label %12

12:                                               ; preds = %130, %0
  %13 = getelementptr inbounds [11 x i8], [11 x i8]* %2, i64 0, i64 0
  %14 = getelementptr inbounds [4 x i8], [4 x i8]* %3, i64 0, i64 0
  %15 = call i32 (i8*, ...) @__isoc99_scanf(i8* getelementptr inbounds ([6 x i8], [6 x i8]* @.str, i64 0, i64 0), i8* %13, i8* %14)
  store i32 %15, i32* %7, align 4
  %16 = load i32, i32* %7, align 4
  %17 = icmp eq i32 %16, -1
  br i1 %17, label %18, label %19

18:                                               ; preds = %12
  br label %131

19:                                               ; preds = %12
  %20 = getelementptr inbounds [11 x i8], [11 x i8]* %2, i64 0, i64 0
  %21 = call i64 @strlen(i8* %20) #3
  %22 = trunc i64 %21 to i32
  store i32 %22, i32* %8, align 4
  %23 = getelementptr inbounds [4 x i8], [4 x i8]* %3, i64 0, i64 0
  %24 = call i64 @strlen(i8* %23) #3
  %25 = trunc i64 %24 to i32
  store i32 %25, i32* %9, align 4
  store i32 0, i32* %10, align 4
  store i32 0, i32* %5, align 4
  br label %26

26:                                               ; preds = %46, %19
  %27 = load i32, i32* %5, align 4
  %28 = load i32, i32* %8, align 4
  %29 = icmp slt i32 %27, %28
  br i1 %29, label %30, label %49

30:                                               ; preds = %26
  %31 = load i32, i32* %5, align 4
  %32 = sext i32 %31 to i64
  %33 = getelementptr inbounds [11 x i8], [11 x i8]* %2, i64 0, i64 %32
  %34 = load i8, i8* %33, align 1
  %35 = sext i8 %34 to i32
  %36 = load i32, i32* %10, align 4
  %37 = sext i32 %36 to i64
  %38 = getelementptr inbounds [11 x i8], [11 x i8]* %2, i64 0, i64 %37
  %39 = load i8, i8* %38, align 1
  %40 = sext i8 %39 to i32
  %41 = icmp sle i32 %35, %40
  br i1 %41, label %42, label %43

42:                                               ; preds = %30
  br label %46

43:                                               ; preds = %30
  %44 = load i32, i32* %5, align 4
  store i32 %44, i32* %10, align 4
  br label %45

45:                                               ; preds = %43
  br label %46

46:                                               ; preds = %45, %42
  %47 = load i32, i32* %5, align 4
  %48 = add nsw i32 %47, 1
  store i32 %48, i32* %5, align 4
  br label %26

49:                                               ; preds = %26
  store i32 0, i32* %11, align 4
  br label %50

50:                                               ; preds = %108, %49
  %51 = load i32, i32* %11, align 4
  %52 = load i32, i32* %8, align 4
  %53 = load i32, i32* %9, align 4
  %54 = add nsw i32 %52, %53
  %55 = icmp slt i32 %51, %54
  br i1 %55, label %56, label %111

56:                                               ; preds = %50
  %57 = load i32, i32* %11, align 4
  %58 = load i32, i32* %10, align 4
  %59 = icmp sle i32 %57, %58
  br i1 %59, label %60, label %68

60:                                               ; preds = %56
  %61 = load i32, i32* %11, align 4
  %62 = sext i32 %61 to i64
  %63 = getelementptr inbounds [11 x i8], [11 x i8]* %2, i64 0, i64 %62
  %64 = load i8, i8* %63, align 1
  %65 = load i32, i32* %11, align 4
  %66 = sext i32 %65 to i64
  %67 = getelementptr inbounds [14 x i8], [14 x i8]* %4, i64 0, i64 %66
  store i8 %64, i8* %67, align 1
  br label %68

68:                                               ; preds = %60, %56
  %69 = load i32, i32* %11, align 4
  %70 = load i32, i32* %10, align 4
  %71 = icmp sgt i32 %69, %70
  br i1 %71, label %72, label %90

72:                                               ; preds = %68
  %73 = load i32, i32* %11, align 4
  %74 = load i32, i32* %10, align 4
  %75 = load i32, i32* %9, align 4
  %76 = add nsw i32 %74, %75
  %77 = add nsw i32 %76, 1
  %78 = icmp slt i32 %73, %77
  br i1 %78, label %79, label %90

79:                                               ; preds = %72
  %80 = load i32, i32* %11, align 4
  %81 = load i32, i32* %10, align 4
  %82 = sub nsw i32 %80, %81
  %83 = sub nsw i32 %82, 1
  %84 = sext i32 %83 to i64
  %85 = getelementptr inbounds [4 x i8], [4 x i8]* %3, i64 0, i64 %84
  %86 = load i8, i8* %85, align 1
  %87 = load i32, i32* %11, align 4
  %88 = sext i32 %87 to i64
  %89 = getelementptr inbounds [14 x i8], [14 x i8]* %4, i64 0, i64 %88
  store i8 %86, i8* %89, align 1
  br label %90

90:                                               ; preds = %79, %72, %68
  %91 = load i32, i32* %11, align 4
  %92 = load i32, i32* %10, align 4
  %93 = load i32, i32* %9, align 4
  %94 = add nsw i32 %92, %93
  %95 = add nsw i32 %94, 1
  %96 = icmp sge i32 %91, %95
  br i1 %96, label %97, label %107

97:                                               ; preds = %90
  %98 = load i32, i32* %11, align 4
  %99 = load i32, i32* %9, align 4
  %100 = sub nsw i32 %98, %99
  %101 = sext i32 %100 to i64
  %102 = getelementptr inbounds [11 x i8], [11 x i8]* %2, i64 0, i64 %101
  %103 = load i8, i8* %102, align 1
  %104 = load i32, i32* %11, align 4
  %105 = sext i32 %104 to i64
  %106 = getelementptr inbounds [14 x i8], [14 x i8]* %4, i64 0, i64 %105
  store i8 %103, i8* %106, align 1
  br label %107

107:                                              ; preds = %97, %90
  br label %108

108:                                              ; preds = %107
  %109 = load i32, i32* %11, align 4
  %110 = add nsw i32 %109, 1
  store i32 %110, i32* %11, align 4
  br label %50

111:                                              ; preds = %50
  store i32 0, i32* %11, align 4
  br label %112

112:                                              ; preds = %125, %111
  %113 = load i32, i32* %11, align 4
  %114 = load i32, i32* %8, align 4
  %115 = load i32, i32* %9, align 4
  %116 = add nsw i32 %114, %115
  %117 = icmp slt i32 %113, %116
  br i1 %117, label %118, label %128

118:                                              ; preds = %112
  %119 = load i32, i32* %11, align 4
  %120 = sext i32 %119 to i64
  %121 = getelementptr inbounds [14 x i8], [14 x i8]* %4, i64 0, i64 %120
  %122 = load i8, i8* %121, align 1
  %123 = sext i8 %122 to i32
  %124 = call i32 (i8*, ...) @printf(i8* getelementptr inbounds ([3 x i8], [3 x i8]* @.str.1, i64 0, i64 0), i32 %123)
  br label %125

125:                                              ; preds = %118
  %126 = load i32, i32* %11, align 4
  %127 = add nsw i32 %126, 1
  store i32 %127, i32* %11, align 4
  br label %112

128:                                              ; preds = %112
  %129 = call i32 (i8*, ...) @printf(i8* getelementptr inbounds ([2 x i8], [2 x i8]* @.str.2, i64 0, i64 0))
  br label %130

130:                                              ; preds = %128
  br label %12

131:                                              ; preds = %18
  ret i32 0
}

declare dso_local i32 @__isoc99_scanf(i8*, ...) #1

; Function Attrs: nounwind readonly
declare dso_local i64 @strlen(i8*) #2

declare dso_local i32 @printf(i8*, ...) #1


!llvm.module.flags = !{!0}
!llvm.ident = !{!1}

!0 = !{i32 1, !"wchar_size", i32 4}
!1 = !{!"clang version 10.0.0-4ubuntu1 "}
